target datalayout = "e-m:e-p270:32:32-p271:32:32-p272:64:64-i64:64-i128:128-f80:128-n8:16:32:64-S128"
target triple = "x86_64-pc-linux-gnu"

%struct.H5HF_free_section_t = type { %struct.H5FS_section_info_t, %union.anon }
%struct.H5FS_section_info_t = type { i64, i64, i32, i32 }
%union.anon = type { %struct.anon.1 }
%struct.anon.1 = type { %union.anon.2, i32, i32, i32, ptr, i32, i64, i32, i32, i32, ptr, i32, ptr }
%union.anon.2 = type { ptr }
%struct.H5HF_hdr_t = type { %struct.H5C_cache_entry_t, i32, i32, i8, i8, i8, i8, %struct.H5HF_dtable_t, i64, i64, i32, i64, i64, %struct.H5O_pline_t, i64, i32, i64, i64, i64, i64, i64, i64, i64, i64, i64, i64, i64, i32, ptr, i64, i8, i8, i8, ptr, i32, ptr, %struct.H5HF_block_iter_t, ptr, i64, i8, i8, i64, i8, i8, i8, i8 }
%struct.H5C_cache_entry_t = type { ptr, i64, i64, ptr, i8, ptr, i8, i8, i8, i8, i32, i8, i8, i8, i8, i8, i32, ptr, i32, i32, i32, i32, i32, i8, i8, ptr, ptr, ptr, ptr, ptr, ptr, i8, i32, i8, i64, ptr, i64, i64, i32, i8, i32, i32, i8, ptr, ptr, ptr }
%struct.H5HF_dtable_t = type { %struct.H5HF_dtable_cparam_t, i64, i32, i32, i32, i32, i32, i32, i32, i64, ptr, ptr, ptr, ptr }
%struct.H5HF_dtable_cparam_t = type { i32, i64, i64, i32, i32 }
%struct.H5O_pline_t = type { %struct.H5O_shared_t, i32, i64, i64, ptr }
%struct.H5O_shared_t = type { i32, ptr, i32, %union.anon.3 }
%union.anon.3 = type { %struct.H5O_mesg_loc_t }
%struct.H5O_mesg_loc_t = type { i32, i64 }
%struct.H5HF_block_iter_t = type { i8, ptr }
%struct.anon = type { ptr, i32 }

@H5HF_init_g = external global i8, align 1
@H5_libterm_g = external global i8, align 1
@.str = private unnamed_addr constant [105 x i8] c"generated/home/dtcxzyw/WorkSpace/Projects/compilers/llvm-opt-benchmark/bench/hdf5/hdf5/src/H5HFsection.c\00", align 1
@H5E_HEAP_g = external global i64, align 8
@H5E_CANTINC_g = external global i64, align 8
@.str.2 = private unnamed_addr constant [57 x i8] c"can't increment reference count on shared indirect block\00", align 1
@__func__.H5HF__sect_single_revive = private unnamed_addr constant [25 x i8] c"H5HF__sect_single_revive\00", align 1
@H5E_CANTGET_g = external global i64, align 8
@.str.3 = private unnamed_addr constant [32 x i8] c"can't get section's parent info\00", align 1
@__func__.H5HF__sect_single_locate_parent = private unnamed_addr constant [32 x i8] c"H5HF__sect_single_locate_parent\00", align 1
@H5E_CANTCOMPUTE_g = external global i64, align 8
@.str.19 = private unnamed_addr constant [38 x i8] c"can't compute row & column of section\00", align 1
@H5E_CANTDEC_g = external global i64, align 8
@.str.20 = private unnamed_addr constant [60 x i8] c"can't decrement reference count on section's indirect block\00", align 1
@H5E_CANTUNPROTECT_g = external global i64, align 8
@.str.21 = private unnamed_addr constant [46 x i8] c"unable to release fractal heap indirect block\00", align 1

; Function Attrs: nounwind uwtable
define internal i32 @H5HF__sect_single_locate_parent(ptr noundef %0, i1 noundef zeroext %1, ptr noundef %2) #0 {
  %4 = alloca ptr, align 8
  %5 = alloca i8, align 1
  %6 = alloca ptr, align 8
  %7 = alloca ptr, align 8
  %8 = alloca i32, align 4
  %9 = alloca i8, align 1
  %10 = alloca i32, align 4
  %11 = alloca i8, align 1
  store ptr %0, ptr %4, align 8, !tbaa !22
  %12 = zext i1 %1 to i8
  store i8 %12, ptr %5, align 1, !tbaa !13
  store ptr %2, ptr %6, align 8, !tbaa !23
  call void @llvm.lifetime.start.p0(i64 8, ptr %7) #7
  call void @llvm.lifetime.start.p0(i64 4, ptr %8) #7
  call void @llvm.lifetime.start.p0(i64 1, ptr %9) #7
  call void @llvm.lifetime.start.p0(i64 4, ptr %10) #7
  store i32 0, ptr %10, align 4, !tbaa !11
  call void @llvm.lifetime.start.p0(i64 1, ptr %11) #7
  store i8 0, ptr %11, align 1, !tbaa !13
  %13 = load i8, ptr @H5HF_init_g, align 1, !tbaa !13, !range !15, !noundef !16
  %14 = trunc i8 %13 to i1
  br i1 %14, label %19, label %15

15:                                               ; preds = %3
  %16 = load i8, ptr @H5_libterm_g, align 1, !tbaa !13, !range !15, !noundef !16
  %17 = trunc i8 %16 to i1
  %18 = xor i1 %17, true
  br label %19

19:                                               ; preds = %15, %3
  %20 = phi i1 [ true, %3 ], [ %18, %15 ]
  %21 = xor i1 %20, true
  %22 = xor i1 %21, true
  %23 = zext i1 %22 to i32
  %24 = sext i32 %23 to i64
  %25 = call i64 @llvm.expect.i64(i64 %24, i64 1)
  %26 = icmp ne i64 %25, 0
  br i1 %26, label %27, label %149

27:                                               ; preds = %19
  %28 = load ptr, ptr %4, align 8, !tbaa !22
  %29 = load ptr, ptr %6, align 8, !tbaa !23
  %30 = getelementptr inbounds nuw %struct.H5HF_free_section_t, ptr %29, i32 0, i32 0
  %31 = getelementptr inbounds nuw %struct.H5FS_section_info_t, ptr %30, i32 0, i32 0
  %32 = load i64, ptr %31, align 8, !tbaa !36
  %33 = call i32 @H5HF__man_dblock_locate(ptr noundef %28, i64 noundef %32, ptr noundef %7, ptr noundef %8, ptr noundef %9, i32 noundef 128)
  %34 = icmp slt i32 %33, 0
  br i1 %34, label %35, label %54

35:                                               ; preds = %27
  br label %36

36:                                               ; preds = %35
  br label %37

37:                                               ; preds = %36
  br label %38

38:                                               ; preds = %37
  %39 = load i64, ptr @H5E_HEAP_g, align 8, !tbaa !25
  %40 = load i64, ptr @H5E_CANTCOMPUTE_g, align 8, !tbaa !25
  %41 = call i32 (ptr, ptr, i32, i64, i64, ptr, ...) @H5E_printf_stack(ptr noundef @.str, ptr noundef @__func__.H5HF__sect_single_locate_parent, i32 noundef 499, i64 noundef %39, i64 noundef %40, ptr noundef @.str.19)
  br label %42

42:                                               ; preds = %38
  br label %43

43:                                               ; preds = %42
  store i8 1, ptr %11, align 1, !tbaa !13
  %44 = load i8, ptr %11, align 1, !tbaa !13, !range !15, !noundef !16
  %45 = trunc i8 %44 to i1
  %46 = zext i1 %45 to i8
  store i8 %46, ptr %11, align 1, !tbaa !13
  br label %47

47:                                               ; preds = %43
  br label %48

48:                                               ; preds = %47
  br label %49

49:                                               ; preds = %48
  store i32 -1, ptr %10, align 4, !tbaa !11
  br label %148

50:                                               ; No predecessors!
  br label %51

51:                                               ; preds = %50
  br label %52

52:                                               ; preds = %51
  br label %53

53:                                               ; preds = %52
  br label %54

54:                                               ; preds = %53, %27
  %55 = load ptr, ptr %7, align 8, !tbaa !66
  %56 = call i32 @H5HF__iblock_incr(ptr noundef %55)
  %57 = icmp slt i32 %56, 0
  br i1 %57, label %58, label %77

58:                                               ; preds = %54
  br label %59

59:                                               ; preds = %58
  br label %60

60:                                               ; preds = %59
  br label %61

61:                                               ; preds = %60
  %62 = load i64, ptr @H5E_HEAP_g, align 8, !tbaa !25
  %63 = load i64, ptr @H5E_CANTINC_g, align 8, !tbaa !25
  %64 = call i32 (ptr, ptr, i32, i64, i64, ptr, ...) @H5E_printf_stack(ptr noundef @.str, ptr noundef @__func__.H5HF__sect_single_locate_parent, i32 noundef 503, i64 noundef %62, i64 noundef %63, ptr noundef @.str.2)
  br label %65

65:                                               ; preds = %61
  br label %66

66:                                               ; preds = %65
  store i8 1, ptr %11, align 1, !tbaa !13
  %67 = load i8, ptr %11, align 1, !tbaa !13, !range !15, !noundef !16
  %68 = trunc i8 %67 to i1
  %69 = zext i1 %68 to i8
  store i8 %69, ptr %11, align 1, !tbaa !13
  br label %70

70:                                               ; preds = %66
  br label %71

71:                                               ; preds = %70
  br label %72

72:                                               ; preds = %71
  store i32 -1, ptr %10, align 4, !tbaa !11
  br label %148

73:                                               ; No predecessors!
  br label %74

74:                                               ; preds = %73
  br label %75

75:                                               ; preds = %74
  br label %76

76:                                               ; preds = %75
  br label %77

77:                                               ; preds = %76, %54
  %78 = load i8, ptr %5, align 1, !tbaa !13, !range !15, !noundef !16
  %79 = trunc i8 %78 to i1
  br i1 %79, label %80, label %114

80:                                               ; preds = %77
  %81 = load ptr, ptr %6, align 8, !tbaa !23
  %82 = getelementptr inbounds nuw %struct.H5HF_free_section_t, ptr %81, i32 0, i32 1
  %83 = getelementptr inbounds nuw %struct.anon, ptr %82, i32 0, i32 0
  %84 = load ptr, ptr %83, align 8, !tbaa !63
  %85 = icmp ne ptr %84, null
  br i1 %85, label %86, label %113

86:                                               ; preds = %80
  %87 = load ptr, ptr %6, align 8, !tbaa !23
  %88 = getelementptr inbounds nuw %struct.H5HF_free_section_t, ptr %87, i32 0, i32 1
  %89 = getelementptr inbounds nuw %struct.anon, ptr %88, i32 0, i32 0
  %90 = load ptr, ptr %89, align 8, !tbaa !63
  %91 = call i32 @H5HF__iblock_decr(ptr noundef %90)
  %92 = icmp slt i32 %91, 0
  br i1 %92, label %93, label %112

93:                                               ; preds = %86
  br label %94

94:                                               ; preds = %93
  br label %95

95:                                               ; preds = %94
  br label %96

96:                                               ; preds = %95
  %97 = load i64, ptr @H5E_HEAP_g, align 8, !tbaa !25
  %98 = load i64, ptr @H5E_CANTDEC_g, align 8, !tbaa !25
  %99 = call i32 (ptr, ptr, i32, i64, i64, ptr, ...) @H5E_printf_stack(ptr noundef @.str, ptr noundef @__func__.H5HF__sect_single_locate_parent, i32 noundef 511, i64 noundef %97, i64 noundef %98, ptr noundef @.str.20)
  br label %100

100:                                              ; preds = %96
  br label %101

101:                                              ; preds = %100
  store i8 1, ptr %11, align 1, !tbaa !13
  %102 = load i8, ptr %11, align 1, !tbaa !13, !range !15, !noundef !16
  %103 = trunc i8 %102 to i1
  %104 = zext i1 %103 to i8
  store i8 %104, ptr %11, align 1, !tbaa !13
  br label %105

105:                                              ; preds = %101
  br label %106

106:                                              ; preds = %105
  br label %107

107:                                              ; preds = %106
  store i32 -1, ptr %10, align 4, !tbaa !11
  br label %148

108:                                              ; No predecessors!
  br label %109

109:                                              ; preds = %108
  br label %110

110:                                              ; preds = %109
  br label %111

111:                                              ; preds = %110
  br label %112

112:                                              ; preds = %111, %86
  br label %113

113:                                              ; preds = %112, %80
  br label %114

114:                                              ; preds = %113, %77
  %115 = load ptr, ptr %7, align 8, !tbaa !66
  %116 = load ptr, ptr %6, align 8, !tbaa !23
  %117 = getelementptr inbounds nuw %struct.H5HF_free_section_t, ptr %116, i32 0, i32 1
  %118 = getelementptr inbounds nuw %struct.anon, ptr %117, i32 0, i32 0
  store ptr %115, ptr %118, align 8, !tbaa !63
  %119 = load i32, ptr %8, align 4, !tbaa !11
  %120 = load ptr, ptr %6, align 8, !tbaa !23
  %121 = getelementptr inbounds nuw %struct.H5HF_free_section_t, ptr %120, i32 0, i32 1
  %122 = getelementptr inbounds nuw %struct.anon, ptr %121, i32 0, i32 1
  store i32 %119, ptr %122, align 8, !tbaa !63
  %123 = load ptr, ptr %7, align 8, !tbaa !66
  %124 = load i8, ptr %9, align 1, !tbaa !13, !range !15, !noundef !16
  %125 = trunc i8 %124 to i1
  %126 = call i32 @H5HF__man_iblock_unprotect(ptr noundef %123, i32 noundef 0, i1 noundef zeroext %125)
  %127 = icmp slt i32 %126, 0
  br i1 %127, label %128, label %147

128:                                              ; preds = %114
  br label %129

129:                                              ; preds = %128
  br label %130

130:                                              ; preds = %129
  br label %131

131:                                              ; preds = %130
  %132 = load i64, ptr @H5E_HEAP_g, align 8, !tbaa !25
  %133 = load i64, ptr @H5E_CANTUNPROTECT_g, align 8, !tbaa !25
  %134 = call i32 (ptr, ptr, i32, i64, i64, ptr, ...) @H5E_printf_stack(ptr noundef @.str, ptr noundef @__func__.H5HF__sect_single_locate_parent, i32 noundef 521, i64 noundef %132, i64 noundef %133, ptr noundef @.str.21)
  br label %135

135:                                              ; preds = %131
  br label %136

136:                                              ; preds = %135
  store i8 1, ptr %11, align 1, !tbaa !13
  %137 = load i8, ptr %11, align 1, !tbaa !13, !range !15, !noundef !16
  %138 = trunc i8 %137 to i1
  %139 = zext i1 %138 to i8
  store i8 %139, ptr %11, align 1, !tbaa !13
  br label %140

140:                                              ; preds = %136
  br label %141

141:                                              ; preds = %140
  br label %142

142:                                              ; preds = %141
  store i32 -1, ptr %10, align 4, !tbaa !11
  br label %148

143:                                              ; No predecessors!
  br label %144

144:                                              ; preds = %143
  br label %145

145:                                              ; preds = %144
  br label %146

146:                                              ; preds = %145
  br label %147

147:                                              ; preds = %146, %114
  store ptr null, ptr %7, align 8, !tbaa !66
  br label %148

148:                                              ; preds = %147, %142, %107, %72, %49
  br label %149

149:                                              ; preds = %148, %19
  %150 = load i32, ptr %10, align 4, !tbaa !11
  call void @llvm.lifetime.end.p0(i64 1, ptr %11) #7
  call void @llvm.lifetime.end.p0(i64 4, ptr %10) #7
  call void @llvm.lifetime.end.p0(i64 1, ptr %9) #7
  call void @llvm.lifetime.end.p0(i64 4, ptr %8) #7
  call void @llvm.lifetime.end.p0(i64 8, ptr %7) #7
  ret i32 %150
}

; Function Attrs: nounwind uwtable
define i32 @H5HF__sect_single_revive(ptr noundef %0, ptr noundef %1) #0 {
  %3 = alloca ptr, align 8
  %4 = alloca ptr, align 8
  %5 = alloca i32, align 4
  %6 = alloca i8, align 1
  store ptr %0, ptr %3, align 8, !tbaa !22
  store ptr %1, ptr %4, align 8, !tbaa !23
  call void @llvm.lifetime.start.p0(i64 4, ptr %5) #7
  store i32 0, ptr %5, align 4, !tbaa !11
  call void @llvm.lifetime.start.p0(i64 1, ptr %6) #7
  store i8 0, ptr %6, align 1, !tbaa !13
  %7 = load i8, ptr @H5HF_init_g, align 1, !tbaa !13, !range !15, !noundef !16
  %8 = trunc i8 %7 to i1
  br i1 %8, label %13, label %9

9:                                                ; preds = %2
  %10 = load i8, ptr @H5_libterm_g, align 1, !tbaa !13, !range !15, !noundef !16
  %11 = trunc i8 %10 to i1
  %12 = xor i1 %11, true
  br label %13

13:                                               ; preds = %9, %2
  %14 = phi i1 [ true, %2 ], [ %12, %9 ]
  %15 = xor i1 %14, true
  %16 = xor i1 %15, true
  %17 = zext i1 %16 to i32
  %18 = sext i32 %17 to i64
  %19 = call i64 @llvm.expect.i64(i64 %18, i64 1)
  %20 = icmp ne i64 %19, 0
  br i1 %20, label %21, label %64

21:                                               ; preds = %13
  %22 = load ptr, ptr %3, align 8, !tbaa !22
  %23 = getelementptr inbounds nuw %struct.H5HF_hdr_t, ptr %22, i32 0, i32 7
  %24 = getelementptr inbounds nuw %struct.H5HF_dtable_t, ptr %23, i32 0, i32 2
  %25 = load i32, ptr %24, align 8, !tbaa !39
  %26 = icmp eq i32 %25, 0
  br i1 %26, label %27, label %34

27:                                               ; preds = %21
  %28 = load ptr, ptr %4, align 8, !tbaa !23
  %29 = getelementptr inbounds nuw %struct.H5HF_free_section_t, ptr %28, i32 0, i32 1
  %30 = getelementptr inbounds nuw %struct.anon, ptr %29, i32 0, i32 0
  store ptr null, ptr %30, align 8, !tbaa !63
  %31 = load ptr, ptr %4, align 8, !tbaa !23
  %32 = getelementptr inbounds nuw %struct.H5HF_free_section_t, ptr %31, i32 0, i32 1
  %33 = getelementptr inbounds nuw %struct.anon, ptr %32, i32 0, i32 1
  store i32 0, ptr %33, align 8, !tbaa !63
  br label %59

34:                                               ; preds = %21
  %35 = load ptr, ptr %3, align 8, !tbaa !22
  %36 = load ptr, ptr %4, align 8, !tbaa !23
  %37 = call i32 @H5HF__sect_single_locate_parent(ptr noundef %35, i1 noundef zeroext false, ptr noundef %36)
  %38 = icmp slt i32 %37, 0
  br i1 %38, label %39, label %58

39:                                               ; preds = %34
  br label %40

40:                                               ; preds = %39
  br label %41

41:                                               ; preds = %40
  br label %42

42:                                               ; preds = %41
  %43 = load i64, ptr @H5E_HEAP_g, align 8, !tbaa !25
  %44 = load i64, ptr @H5E_CANTGET_g, align 8, !tbaa !25
  %45 = call i32 (ptr, ptr, i32, i64, i64, ptr, ...) @H5E_printf_stack(ptr noundef @.str, ptr noundef @__func__.H5HF__sect_single_revive, i32 noundef 561, i64 noundef %43, i64 noundef %44, ptr noundef @.str.3)
  br label %46

46:                                               ; preds = %42
  br label %47

47:                                               ; preds = %46
  store i8 1, ptr %6, align 1, !tbaa !13
  %48 = load i8, ptr %6, align 1, !tbaa !13, !range !15, !noundef !16
  %49 = trunc i8 %48 to i1
  %50 = zext i1 %49 to i8
  store i8 %50, ptr %6, align 1, !tbaa !13
  br label %51

51:                                               ; preds = %47
  br label %52

52:                                               ; preds = %51
  br label %53

53:                                               ; preds = %52
  store i32 -1, ptr %5, align 4, !tbaa !11
  br label %63

54:                                               ; No predecessors!
  br label %55

55:                                               ; preds = %54
  br label %56

56:                                               ; preds = %55
  br label %57

57:                                               ; preds = %56
  br label %58

58:                                               ; preds = %57, %34
  br label %59

59:                                               ; preds = %58, %27
  %60 = load ptr, ptr %4, align 8, !tbaa !23
  %61 = getelementptr inbounds nuw %struct.H5HF_free_section_t, ptr %60, i32 0, i32 0
  %62 = getelementptr inbounds nuw %struct.H5FS_section_info_t, ptr %61, i32 0, i32 3
  store i32 0, ptr %62, align 4, !tbaa !38
  br label %63

63:                                               ; preds = %59, %53
  br label %64

64:                                               ; preds = %63, %13
  %65 = load i32, ptr %5, align 4, !tbaa !11
  call void @llvm.lifetime.end.p0(i64 1, ptr %6) #7
  call void @llvm.lifetime.end.p0(i64 4, ptr %5) #7
  ret i32 %65
}