; Function Attrs: nounwind uwtable
define range(i32 -1, 1) i32 @H5HF__sect_single_revive(ptr noundef %0, ptr noundef captures(none) %1) local_unnamed_addr #0 {
  %3 = alloca ptr, align 8
  %4 = alloca i32, align 4
  %5 = alloca i8, align 1
  %6 = load i8, ptr @H5HF_init_g, align 1, !tbaa !3, !range !7, !noundef !8
  %7 = trunc nuw i8 %6 to i1
  %8 = load i8, ptr @H5_libterm_g, align 1, !range !7
  %9 = trunc nuw i8 %8 to i1
  %10 = xor i1 %9, true
  %11 = select i1 %7, i1 true, i1 %10
  br i1 %11, label %12, label %54, !prof !9

12:                                               ; preds = %2
  %13 = getelementptr inbounds nuw i8, ptr %0, i64 304
  %14 = load i32, ptr %13, align 8, !tbaa !27
  %15 = icmp eq i32 %14, 0
  br i1 %15, label %16, label %19

16:                                               ; preds = %12
  %17 = getelementptr inbounds nuw i8, ptr %1, i64 24
  store ptr null, ptr %17, align 8, !tbaa !26
  %18 = getelementptr inbounds nuw i8, ptr %1, i64 32
  store i32 0, ptr %18, align 8, !tbaa !26
  br label %52

19:                                               ; preds = %12
  call void @llvm.lifetime.start.p0(i64 8, ptr nonnull %3) #13
  call void @llvm.lifetime.start.p0(i64 4, ptr nonnull %4) #13
  call void @llvm.lifetime.start.p0(i64 1, ptr nonnull %5) #13
  %20 = load i64, ptr %1, align 8, !tbaa !23
  %21 = call i32 @H5HF__man_dblock_locate(ptr noundef nonnull %0, i64 noundef %20, ptr noundef nonnull %3, ptr noundef nonnull %4, ptr noundef nonnull %5, i32 noundef 128) #13
  %22 = icmp slt i32 %21, 0
  br i1 %22, label %23, label %27

23:                                               ; preds = %19
  %24 = load i64, ptr @H5E_HEAP_g, align 8, !tbaa !18
  %25 = load i64, ptr @H5E_CANTCOMPUTE_g, align 8, !tbaa !18
  %26 = call i32 (ptr, ptr, i32, i64, i64, ptr, ...) @H5E_printf_stack(ptr noundef nonnull @.str, ptr noundef nonnull @__func__.H5HF__sect_single_locate_parent, i32 noundef 499, i64 noundef %24, i64 noundef %25, ptr noundef nonnull @.str.19) #13
  br label %48

27:                                               ; preds = %19
  %28 = load ptr, ptr %3, align 8, !tbaa !74
  %29 = call i32 @H5HF__iblock_incr(ptr noundef %28) #13
  %30 = icmp slt i32 %29, 0
  br i1 %30, label %31, label %35

31:                                               ; preds = %27
  %32 = load i64, ptr @H5E_HEAP_g, align 8, !tbaa !18
  %33 = load i64, ptr @H5E_CANTINC_g, align 8, !tbaa !18
  %34 = call i32 (ptr, ptr, i32, i64, i64, ptr, ...) @H5E_printf_stack(ptr noundef nonnull @.str, ptr noundef nonnull @__func__.H5HF__sect_single_locate_parent, i32 noundef 503, i64 noundef %32, i64 noundef %33, ptr noundef nonnull @.str.2) #13
  br label %48

35:                                               ; preds = %27
  %36 = load ptr, ptr %3, align 8, !tbaa !74
  %37 = getelementptr inbounds nuw i8, ptr %1, i64 24
  store ptr %36, ptr %37, align 8, !tbaa !26
  %38 = load i32, ptr %4, align 4, !tbaa !10
  %39 = getelementptr inbounds nuw i8, ptr %1, i64 32
  store i32 %38, ptr %39, align 8, !tbaa !26
  %40 = load i8, ptr %5, align 1, !tbaa !3, !range !7, !noundef !8
  %41 = trunc nuw i8 %40 to i1
  %42 = call i32 @H5HF__man_iblock_unprotect(ptr noundef %36, i32 noundef 0, i1 noundef zeroext %41) #13
  %43 = icmp slt i32 %42, 0
  br i1 %43, label %44, label %H5HF__sect_single_locate_parent.exit

44:                                               ; preds = %35
  %45 = load i64, ptr @H5E_HEAP_g, align 8, !tbaa !18
  %46 = load i64, ptr @H5E_CANTUNPROTECT_g, align 8, !tbaa !18
  %47 = call i32 (ptr, ptr, i32, i64, i64, ptr, ...) @H5E_printf_stack(ptr noundef nonnull @.str, ptr noundef nonnull @__func__.H5HF__sect_single_locate_parent, i32 noundef 521, i64 noundef %45, i64 noundef %46, ptr noundef nonnull @.str.21) #13
  br label %48

H5HF__sect_single_locate_parent.exit:             ; preds = %35
  call void @llvm.lifetime.end.p0(i64 1, ptr nonnull %5) #13
  call void @llvm.lifetime.end.p0(i64 4, ptr nonnull %4) #13
  call void @llvm.lifetime.end.p0(i64 8, ptr nonnull %3) #13
  br label %52

48:                                               ; preds = %23, %31, %44
  call void @llvm.lifetime.end.p0(i64 1, ptr nonnull %5) #13
  call void @llvm.lifetime.end.p0(i64 4, ptr nonnull %4) #13
  call void @llvm.lifetime.end.p0(i64 8, ptr nonnull %3) #13
  %49 = load i64, ptr @H5E_HEAP_g, align 8, !tbaa !18
  %50 = load i64, ptr @H5E_CANTGET_g, align 8, !tbaa !18
  %51 = call i32 (ptr, ptr, i32, i64, i64, ptr, ...) @H5E_printf_stack(ptr noundef nonnull @.str, ptr noundef nonnull @__func__.H5HF__sect_single_revive, i32 noundef 561, i64 noundef %49, i64 noundef %50, ptr noundef nonnull @.str.3) #13
  br label %54

52:                                               ; preds = %H5HF__sect_single_locate_parent.exit, %16
  %53 = getelementptr inbounds nuw i8, ptr %1, i64 20
  store i32 0, ptr %53, align 4, !tbaa !25
  br label %54

54:                                               ; preds = %48, %52, %2
  %.0 = phi i32 [ 0, %52 ], [ -1, %48 ], [ 0, %2 ]
  ret i32 %.0
}